target datalayout = "e-m:e-p270:32:32-p271:32:32-p272:64:64-i64:64-i128:128-f80:128-n8:16:32:64-S128"
target triple = "x86_64-pc-linux-gnu"

%struct.visual_file_hdr = type { i32, i32, i16, i16, i16, i16, i32, i16, [102 x i8], [64 x i8] }
%struct.wtap = type { ptr, ptr, i8, i32, i32, ptr, ptr, ptr, i32, ptr, ptr, ptr, ptr, ptr, ptr, ptr, ptr, ptr, ptr, i32, i32, ptr, ptr, ptr, ptr }
%struct.visual_read_info = type { i32, i32, i64 }

@visual_magic = internal constant [4 x i8] c"\05VNF", align 1
@.str = private unnamed_addr constant [36 x i8] c"visual: file version %u unsupported\00", align 1
@.str.1 = private unnamed_addr constant [47 x i8] c"visual: network type %u unknown or unsupported\00", align 1
@visual_file_type_subtype = internal global i32 -1, align 4

; Function Attrs: inlinehint nounwind null_pointer_is_valid sspstrong uwtable
define internal i32 @pletoh32(ptr noundef %0) #4 {
  %2 = alloca ptr, align 8
  store ptr %0, ptr %2, align 8
  %3 = load ptr, ptr %2, align 8
  %4 = getelementptr i8, ptr %3, i64 3
  %5 = load i8, ptr %4, align 1
  %6 = zext i8 %5 to i32
  %7 = shl i32 %6, 24
  %8 = load ptr, ptr %2, align 8
  %9 = getelementptr i8, ptr %8, i64 2
  %10 = load i8, ptr %9, align 1
  %11 = zext i8 %10 to i32
  %12 = shl i32 %11, 16
  %13 = or i32 %7, %12
  %14 = load ptr, ptr %2, align 8
  %15 = getelementptr i8, ptr %14, i64 1
  %16 = load i8, ptr %15, align 1
  %17 = zext i8 %16 to i32
  %18 = shl i32 %17, 8
  %19 = or i32 %13, %18
  %20 = load ptr, ptr %2, align 8
  %21 = getelementptr i8, ptr %20, i64 0
  %22 = load i8, ptr %21, align 1
  %23 = zext i8 %22 to i32
  %24 = shl i32 %23, 0
  %25 = or i32 %19, %24
  ret i32 %25
}

; Function Attrs: inlinehint nounwind null_pointer_is_valid sspstrong uwtable
define internal zeroext i16 @pletoh16(ptr noundef %0) #4 {
  %2 = alloca ptr, align 8
  store ptr %0, ptr %2, align 8
  %3 = load ptr, ptr %2, align 8
  %4 = getelementptr i8, ptr %3, i64 1
  %5 = load i8, ptr %4, align 1
  %6 = zext i8 %5 to i16
  %7 = zext i16 %6 to i32
  %8 = shl i32 %7, 8
  %9 = load ptr, ptr %2, align 8
  %10 = getelementptr i8, ptr %9, i64 0
  %11 = load i8, ptr %10, align 1
  %12 = zext i8 %11 to i16
  %13 = zext i16 %12 to i32
  %14 = shl i32 %13, 0
  %15 = or i32 %8, %14
  %16 = trunc i32 %15 to i16
  ret i16 %16
}

; Function Attrs: null_pointer_is_valid sspstrong uwtable
define hidden i32 @visual_open(ptr noundef %0, ptr noundef %1, ptr noundef %2) #0 {
  %4 = alloca i32, align 4
  %5 = alloca ptr, align 8
  %6 = alloca ptr, align 8
  %7 = alloca ptr, align 8
  %8 = alloca [4 x i8], align 1
  %9 = alloca %struct.visual_file_hdr, align 4
  %10 = alloca ptr, align 8
  %11 = alloca i32, align 4
  %12 = alloca i32, align 4
  %13 = alloca i64, align 8
  %14 = alloca i64, align 8
  %15 = alloca ptr, align 8
  %16 = alloca ptr, align 8
  store ptr %0, ptr %5, align 8
  store ptr %1, ptr %6, align 8
  store ptr %2, ptr %7, align 8
  call void @llvm.lifetime.start.p0(i64 4, ptr %8) #10
  call void @llvm.lifetime.start.p0(i64 188, ptr %9) #10
  call void @llvm.lifetime.start.p0(i64 8, ptr %10) #10
  call void @llvm.lifetime.start.p0(i64 4, ptr %11) #10
  %17 = load ptr, ptr %5, align 8
  %18 = getelementptr inbounds nuw %struct.wtap, ptr %17, i32 0, i32 0
  %19 = load ptr, ptr %18, align 8
  %20 = getelementptr inbounds [4 x i8], ptr %8, i64 0, i64 0
  %21 = load ptr, ptr %6, align 8
  %22 = load ptr, ptr %7, align 8
  %23 = call zeroext i1 @wtap_read_bytes(ptr noundef %19, ptr noundef %20, i32 noundef 4, ptr noundef %21, ptr noundef %22)
  br i1 %23, label %30, label %24

24:                                               ; preds = %3
  %25 = load ptr, ptr %6, align 8
  %26 = load i32, ptr %25, align 4
  %27 = icmp ne i32 %26, -12
  br i1 %27, label %28, label %29

28:                                               ; preds = %24
  store i32 -1, ptr %4, align 4
  store i32 1, ptr %12, align 4
  br label %137

29:                                               ; preds = %24
  store i32 0, ptr %4, align 4
  store i32 1, ptr %12, align 4
  br label %137

30:                                               ; preds = %3
  %31 = getelementptr inbounds [4 x i8], ptr %8, i64 0, i64 0
  %32 = call i32 @memcmp(ptr noundef %31, ptr noundef @visual_magic, i64 noundef 4) #11
  %33 = icmp ne i32 %32, 0
  br i1 %33, label %34, label %35

34:                                               ; preds = %30
  store i32 0, ptr %4, align 4
  store i32 1, ptr %12, align 4
  br label %137

35:                                               ; preds = %30
  %36 = load ptr, ptr %5, align 8
  %37 = getelementptr inbounds nuw %struct.wtap, ptr %36, i32 0, i32 0
  %38 = load ptr, ptr %37, align 8
  %39 = load ptr, ptr %6, align 8
  %40 = load ptr, ptr %7, align 8
  %41 = call zeroext i1 @wtap_read_bytes(ptr noundef %38, ptr noundef %9, i32 noundef 188, ptr noundef %39, ptr noundef %40)
  br i1 %41, label %43, label %42

42:                                               ; preds = %35
  store i32 -1, ptr %4, align 4
  store i32 1, ptr %12, align 4
  br label %137

43:                                               ; preds = %35
  %44 = getelementptr inbounds nuw %struct.visual_file_hdr, ptr %9, i32 0, i32 5
  %45 = call zeroext i16 @pletoh16(ptr noundef %44)
  %46 = getelementptr inbounds nuw %struct.visual_file_hdr, ptr %9, i32 0, i32 5
  store i16 %45, ptr %46, align 2
  %47 = getelementptr inbounds nuw %struct.visual_file_hdr, ptr %9, i32 0, i32 5
  %48 = load i16, ptr %47, align 2
  %49 = zext i16 %48 to i32
  %50 = icmp ne i32 %49, 1
  br i1 %50, label %51, label %58

51:                                               ; preds = %43
  %52 = load ptr, ptr %6, align 8
  store i32 -4, ptr %52, align 4
  %53 = getelementptr inbounds nuw %struct.visual_file_hdr, ptr %9, i32 0, i32 5
  %54 = load i16, ptr %53, align 2
  %55 = zext i16 %54 to i32
  %56 = call noalias ptr (ptr, ptr, ...) @wmem_strdup_printf(ptr noundef null, ptr noundef @.str, i32 noundef %55)
  %57 = load ptr, ptr %7, align 8
  store ptr %56, ptr %57, align 8
  store i32 -1, ptr %4, align 4
  store i32 1, ptr %12, align 4
  br label %137

58:                                               ; preds = %43
  %59 = getelementptr inbounds nuw %struct.visual_file_hdr, ptr %9, i32 0, i32 2
  %60 = call zeroext i16 @pletoh16(ptr noundef %59)
  %61 = zext i16 %60 to i32
  switch i32 %61, label %68 [
    i32 6, label %62
    i32 9, label %63
    i32 16, label %64
    i32 22, label %65
    i32 118, label %65
    i32 32, label %66
    i32 37, label %67
  ]

62:                                               ; preds = %58
  store i32 1, ptr %11, align 4
  br label %75

63:                                               ; preds = %58
  store i32 2, ptr %11, align 4
  br label %75

64:                                               ; preds = %58
  store i32 12, ptr %11, align 4
  br label %75

65:                                               ; preds = %58, %58
  store i32 40, ptr %11, align 4
  br label %75

66:                                               ; preds = %58
  store i32 27, ptr %11, align 4
  br label %75

67:                                               ; preds = %58
  store i32 13, ptr %11, align 4
  br label %75

68:                                               ; preds = %58
  %69 = load ptr, ptr %6, align 8
  store i32 -4, ptr %69, align 4
  %70 = getelementptr inbounds nuw %struct.visual_file_hdr, ptr %9, i32 0, i32 2
  %71 = load i16, ptr %70, align 4
  %72 = zext i16 %71 to i32
  %73 = call noalias ptr (ptr, ptr, ...) @wmem_strdup_printf(ptr noundef null, ptr noundef @.str.1, i32 noundef %72)
  %74 = load ptr, ptr %7, align 8
  store ptr %73, ptr %74, align 8
  store i32 -1, ptr %4, align 4
  store i32 1, ptr %12, align 4
  br label %137

75:                                               ; preds = %67, %66, %65, %64, %63, %62
  %76 = load i32, ptr @visual_file_type_subtype, align 4
  %77 = load ptr, ptr %5, align 8
  %78 = getelementptr inbounds nuw %struct.wtap, ptr %77, i32 0, i32 3
  store i32 %76, ptr %78, align 4
  %79 = load i32, ptr %11, align 4
  %80 = load ptr, ptr %5, align 8
  %81 = getelementptr inbounds nuw %struct.wtap, ptr %80, i32 0, i32 19
  store i32 %79, ptr %81, align 8
  %82 = getelementptr inbounds nuw %struct.visual_file_hdr, ptr %9, i32 0, i32 3
  %83 = call zeroext i16 @pletoh16(ptr noundef %82)
  %84 = zext i16 %83 to i32
  %85 = load ptr, ptr %5, align 8
  %86 = getelementptr inbounds nuw %struct.wtap, ptr %85, i32 0, i32 4
  store i32 %84, ptr %86, align 8
  %87 = load ptr, ptr %5, align 8
  %88 = getelementptr inbounds nuw %struct.wtap, ptr %87, i32 0, i32 15
  store ptr @visual_read, ptr %88, align 8
  %89 = load ptr, ptr %5, align 8
  %90 = getelementptr inbounds nuw %struct.wtap, ptr %89, i32 0, i32 16
  store ptr @visual_seek_read, ptr %90, align 8
  %91 = load ptr, ptr %5, align 8
  %92 = getelementptr inbounds nuw %struct.wtap, ptr %91, i32 0, i32 20
  store i32 3, ptr %92, align 4
  call void @llvm.lifetime.start.p0(i64 8, ptr %13) #10
  store i64 1, ptr %13, align 8
  call void @llvm.lifetime.start.p0(i64 8, ptr %14) #10
  store i64 16, ptr %14, align 8
  call void @llvm.lifetime.start.p0(i64 8, ptr %15) #10
  %93 = load i64, ptr %14, align 8
  %94 = icmp eq i64 %93, 1
  br i1 %94, label %95, label %98

95:                                               ; preds = %75
  %96 = load i64, ptr %13, align 8
  %97 = call noalias ptr @g_malloc(i64 noundef %96) #12
  store ptr %97, ptr %15, align 8
  br label %119

98:                                               ; preds = %75
  %99 = load i64, ptr %13, align 8
  %100 = call i1 @llvm.is.constant.i64(i64 %99)
  br i1 %100, label %101, label %114

101:                                              ; preds = %98
  %102 = load i64, ptr %14, align 8
  %103 = icmp eq i64 %102, 0
  br i1 %103, label %109, label %104

104:                                              ; preds = %101
  %105 = load i64, ptr %13, align 8
  %106 = load i64, ptr %14, align 8
  %107 = udiv i64 -1, %106
  %108 = icmp ule i64 %105, %107
  br i1 %108, label %109, label %114

109:                                              ; preds = %104, %101
  %110 = load i64, ptr %13, align 8
  %111 = load i64, ptr %14, align 8
  %112 = mul i64 %110, %111
  %113 = call noalias ptr @g_malloc(i64 noundef %112) #12
  store ptr %113, ptr %15, align 8
  br label %118

114:                                              ; preds = %104, %98
  %115 = load i64, ptr %13, align 8
  %116 = load i64, ptr %14, align 8
  %117 = call noalias ptr @g_malloc_n(i64 noundef %115, i64 noundef %116) #13
  store ptr %117, ptr %15, align 8
  br label %118

118:                                              ; preds = %114, %109
  br label %119

119:                                              ; preds = %118, %95
  %120 = load ptr, ptr %15, align 8
  store ptr %120, ptr %16, align 8
  call void @llvm.lifetime.end.p0(i64 8, ptr %15) #10
  call void @llvm.lifetime.end.p0(i64 8, ptr %14) #10
  call void @llvm.lifetime.end.p0(i64 8, ptr %13) #10
  %121 = load ptr, ptr %16, align 8
  store ptr %121, ptr %10, align 8
  %122 = load ptr, ptr %10, align 8
  %123 = load ptr, ptr %5, align 8
  %124 = getelementptr inbounds nuw %struct.wtap, ptr %123, i32 0, i32 13
  store ptr %122, ptr %124, align 8
  %125 = getelementptr inbounds nuw %struct.visual_file_hdr, ptr %9, i32 0, i32 0
  %126 = call i32 @pletoh32(ptr noundef %125)
  %127 = load ptr, ptr %10, align 8
  %128 = getelementptr inbounds nuw %struct.visual_read_info, ptr %127, i32 0, i32 0
  store i32 %126, ptr %128, align 8
  %129 = getelementptr inbounds nuw %struct.visual_file_hdr, ptr %9, i32 0, i32 1
  %130 = call i32 @pletoh32(ptr noundef %129)
  %131 = zext i32 %130 to i64
  %132 = load ptr, ptr %10, align 8
  %133 = getelementptr inbounds nuw %struct.visual_read_info, ptr %132, i32 0, i32 2
  store i64 %131, ptr %133, align 8
  %134 = load ptr, ptr %10, align 8
  %135 = getelementptr inbounds nuw %struct.visual_read_info, ptr %134, i32 0, i32 1
  store i32 1, ptr %135, align 4
  %136 = load ptr, ptr %5, align 8
  call void @wtap_add_generated_idb(ptr noundef %136)
  store i32 1, ptr %4, align 4
  store i32 1, ptr %12, align 4
  br label %137

137:                                              ; preds = %119, %68, %51, %42, %34, %29, %28
  call void @llvm.lifetime.end.p0(i64 4, ptr %11) #10
  call void @llvm.lifetime.end.p0(i64 8, ptr %10) #10
  call void @llvm.lifetime.end.p0(i64 188, ptr %9) #10
  call void @llvm.lifetime.end.p0(i64 4, ptr %8) #10
  %138 = load i32, ptr %4, align 4
  ret i32 %138
}