; Function Attrs: null_pointer_is_valid sspstrong uwtable
define hidden range(i32 -1, 2) i32 @visual_open(ptr noundef %0, ptr noundef %1, ptr noundef %2) local_unnamed_addr #0 {
  %4 = alloca [4 x i8], align 1
  %5 = alloca %struct.visual_file_hdr, align 4
  call void @llvm.lifetime.start.p0(i64 4, ptr nonnull %4) #7
  call void @llvm.lifetime.start.p0(i64 188, ptr nonnull %5) #7
  %6 = load ptr, ptr %0, align 8
  %7 = call zeroext i1 @wtap_read_bytes(ptr noundef %6, ptr noundef nonnull %4, i32 noundef 4, ptr noundef %1, ptr noundef %2)
  br i1 %7, label %10, label %8

8:                                                ; preds = %3
  %9 = load i32, ptr %1, align 4
  %.not = icmp ne i32 %9, -12
  %. = sext i1 %.not to i32
  br label %52

10:                                               ; preds = %3
  %bcmp = call i32 @bcmp(ptr noundef nonnull dereferenceable(4) %4, ptr noundef nonnull dereferenceable(4) @visual_magic, i64 4)
  %.not38 = icmp eq i32 %bcmp, 0
  br i1 %.not38, label %11, label %52

11:                                               ; preds = %10
  %12 = load ptr, ptr %0, align 8
  %13 = call zeroext i1 @wtap_read_bytes(ptr noundef %12, ptr noundef nonnull %5, i32 noundef 188, ptr noundef %1, ptr noundef %2)
  br i1 %13, label %14, label %52

14:                                               ; preds = %11
  %15 = getelementptr inbounds nuw i8, ptr %5, i64 14
  %.val = load i8, ptr %15, align 2
  %16 = getelementptr inbounds nuw i8, ptr %5, i64 15
  %.val40 = load i8, ptr %16, align 1
  %17 = zext i8 %.val40 to i16
  %18 = shl nuw i16 %17, 8
  %19 = zext i8 %.val to i16
  %20 = or disjoint i16 %18, %19
  store i16 %20, ptr %15, align 2
  %.not39 = icmp eq i16 %20, 1
  br i1 %.not39, label %24, label %21

21:                                               ; preds = %14
  store i32 -4, ptr %1, align 4
  %22 = zext i16 %20 to i32
  %23 = call noalias ptr (ptr, ptr, ...) @wmem_strdup_printf(ptr noundef null, ptr noundef nonnull @.str, i32 noundef %22)
  store ptr %23, ptr %2, align 8
  br label %52

24:                                               ; preds = %14
  %25 = getelementptr inbounds nuw i8, ptr %5, i64 8
  %.val41 = load i16, ptr %25, align 4
  switch i16 %.val41, label %31 [
    i16 6, label %34
    i16 9, label %26
    i16 16, label %27
    i16 22, label %28
    i16 118, label %28
    i16 32, label %29
    i16 37, label %30
  ]

26:                                               ; preds = %24
  br label %34

27:                                               ; preds = %24
  br label %34

28:                                               ; preds = %24, %24
  br label %34

29:                                               ; preds = %24
  br label %34

30:                                               ; preds = %24
  br label %34

31:                                               ; preds = %24
  store i32 -4, ptr %1, align 4
  %32 = zext i16 %.val41 to i32
  %33 = call noalias ptr (ptr, ptr, ...) @wmem_strdup_printf(ptr noundef null, ptr noundef nonnull @.str.1, i32 noundef %32)
  store ptr %33, ptr %2, align 8
  br label %52

34:                                               ; preds = %24, %30, %29, %28, %27, %26
  %.037 = phi i32 [ 13, %30 ], [ 27, %29 ], [ 40, %28 ], [ 12, %27 ], [ 2, %26 ], [ 1, %24 ]
  %35 = load i32, ptr @visual_file_type_subtype, align 4
  %36 = getelementptr inbounds nuw i8, ptr %0, i64 20
  store i32 %35, ptr %36, align 4
  %37 = getelementptr inbounds nuw i8, ptr %0, i64 144
  store i32 %.037, ptr %37, align 8
  %38 = getelementptr inbounds nuw i8, ptr %5, i64 10
  %.val43 = load i16, ptr %38, align 2
  %39 = zext i16 %.val43 to i32
  %40 = getelementptr inbounds nuw i8, ptr %0, i64 24
  store i32 %39, ptr %40, align 8
  %41 = getelementptr inbounds nuw i8, ptr %0, i64 112
  store ptr @visual_read, ptr %41, align 8
  %42 = getelementptr inbounds nuw i8, ptr %0, i64 120
  store ptr @visual_seek_read, ptr %42, align 8
  %43 = getelementptr inbounds nuw i8, ptr %0, i64 148
  store i32 3, ptr %43, align 4
  %44 = call noalias dereferenceable_or_null(16) ptr @g_malloc(i64 noundef 16) #8
  %45 = getelementptr inbounds nuw i8, ptr %0, i64 96
  store ptr %44, ptr %45, align 8
  %46 = load i32, ptr %5, align 4
  store i32 %46, ptr %44, align 8
  %47 = getelementptr inbounds nuw i8, ptr %5, i64 4
  %48 = load i32, ptr %47, align 4
  %49 = zext i32 %48 to i64
  %50 = getelementptr inbounds nuw i8, ptr %44, i64 8
  store i64 %49, ptr %50, align 8
  %51 = getelementptr inbounds nuw i8, ptr %44, i64 4
  store i32 1, ptr %51, align 4
  call void @wtap_add_generated_idb(ptr noundef %0)
  br label %52

52:                                               ; preds = %11, %10, %8, %34, %31, %21
  %.0 = phi i32 [ -1, %21 ], [ -1, %31 ], [ 1, %34 ], [ %., %8 ], [ 0, %10 ], [ -1, %11 ]
  call void @llvm.lifetime.end.p0(i64 188, ptr nonnull %5) #7
  call void @llvm.lifetime.end.p0(i64 4, ptr nonnull %4) #7
  ret i32 %.0
}